target datalayout = "e-m:e-p270:32:32-p271:32:32-p272:64:64-i64:64-i128:128-f80:128-n8:16:32:64-S128"
target triple = "x86_64-pc-linux-gnu"

%struct.FT_GlyphRec_ = type { ptr, ptr, i32, %struct.FT_Vector_ }
%struct.FT_Vector_ = type { i64, i64 }
%struct.FT_GlyphSlotRec_ = type { ptr, ptr, ptr, i32, %struct.FT_Generic_, %struct.FT_Glyph_Metrics_, i64, i64, %struct.FT_Vector_, i32, %struct.FT_Bitmap_, i32, i32, %struct.FT_Outline_, i32, ptr, ptr, i64, i64, i64, ptr, ptr }
%struct.FT_Generic_ = type { ptr, ptr }
%struct.FT_Glyph_Metrics_ = type { i64, i64, i64, i64, i64, i64, i64, i64 }
%struct.FT_Bitmap_ = type { i32, i32, i32, ptr, i16, i8, i8, ptr }
%struct.FT_Outline_ = type { i16, i16, ptr, ptr, ptr, i32 }
%struct.FT_BitmapGlyphRec_ = type { %struct.FT_GlyphRec_, i32, i32, %struct.FT_Bitmap_ }
%struct.FT_Slot_InternalRec_ = type { ptr, i32, i8, %struct.FT_Matrix_, %struct.FT_Vector_, ptr, i32 }
%struct.FT_Matrix_ = type { i64, i64, i64, i64 }

; Function Attrs: nounwind uwtable
define internal i32 @ft_bitmap_glyph_init(ptr noundef %0, ptr noundef %1) #0 {
  %3 = alloca ptr, align 8
  %4 = alloca ptr, align 8
  %5 = alloca ptr, align 8
  %6 = alloca i32, align 4
  %7 = alloca ptr, align 8
  store ptr %0, ptr %3, align 8, !tbaa !3
  store ptr %1, ptr %4, align 8, !tbaa !8
  call void @llvm.lifetime.start.p0(i64 8, ptr %5) #6
  %8 = load ptr, ptr %3, align 8, !tbaa !3
  store ptr %8, ptr %5, align 8, !tbaa !10
  call void @llvm.lifetime.start.p0(i64 4, ptr %6) #6
  store i32 0, ptr %6, align 4, !tbaa !12
  call void @llvm.lifetime.start.p0(i64 8, ptr %7) #6
  %9 = load ptr, ptr %5, align 8, !tbaa !10
  %10 = getelementptr inbounds nuw %struct.FT_GlyphRec_, ptr %9, i32 0, i32 0
  %11 = load ptr, ptr %10, align 8, !tbaa !14
  store ptr %11, ptr %7, align 8, !tbaa !20
  %12 = load ptr, ptr %4, align 8, !tbaa !8
  %13 = getelementptr inbounds nuw %struct.FT_GlyphSlotRec_, ptr %12, i32 0, i32 9
  %14 = load i32, ptr %13, align 8, !tbaa !21
  %15 = icmp ne i32 %14, 1651078259
  br i1 %15, label %16, label %17

16:                                               ; preds = %2
  store i32 18, ptr %6, align 4, !tbaa !12
  br label %56

17:                                               ; preds = %2
  %18 = load ptr, ptr %4, align 8, !tbaa !8
  %19 = getelementptr inbounds nuw %struct.FT_GlyphSlotRec_, ptr %18, i32 0, i32 11
  %20 = load i32, ptr %19, align 8, !tbaa !34
  %21 = load ptr, ptr %5, align 8, !tbaa !10
  %22 = getelementptr inbounds nuw %struct.FT_BitmapGlyphRec_, ptr %21, i32 0, i32 1
  store i32 %20, ptr %22, align 8, !tbaa !35
  %23 = load ptr, ptr %4, align 8, !tbaa !8
  %24 = getelementptr inbounds nuw %struct.FT_GlyphSlotRec_, ptr %23, i32 0, i32 12
  %25 = load i32, ptr %24, align 4, !tbaa !37
  %26 = load ptr, ptr %5, align 8, !tbaa !10
  %27 = getelementptr inbounds nuw %struct.FT_BitmapGlyphRec_, ptr %26, i32 0, i32 2
  store i32 %25, ptr %27, align 4, !tbaa !38
  %28 = load ptr, ptr %4, align 8, !tbaa !8
  %29 = getelementptr inbounds nuw %struct.FT_GlyphSlotRec_, ptr %28, i32 0, i32 21
  %30 = load ptr, ptr %29, align 8, !tbaa !39
  %31 = getelementptr inbounds nuw %struct.FT_Slot_InternalRec_, ptr %30, i32 0, i32 1
  %32 = load i32, ptr %31, align 8, !tbaa !40
  %33 = and i32 %32, 1
  %34 = icmp ne i32 %33, 0
  br i1 %34, label %35, label %46

35:                                               ; preds = %17
  %36 = load ptr, ptr %5, align 8, !tbaa !10
  %37 = getelementptr inbounds nuw %struct.FT_BitmapGlyphRec_, ptr %36, i32 0, i32 3
  %38 = load ptr, ptr %4, align 8, !tbaa !8
  %39 = getelementptr inbounds nuw %struct.FT_GlyphSlotRec_, ptr %38, i32 0, i32 10
  call void @llvm.memcpy.p0.p0.i64(ptr align 8 %37, ptr align 8 %39, i64 40, i1 false), !tbaa.struct !44
  %40 = load ptr, ptr %4, align 8, !tbaa !8
  %41 = getelementptr inbounds nuw %struct.FT_GlyphSlotRec_, ptr %40, i32 0, i32 21
  %42 = load ptr, ptr %41, align 8, !tbaa !39
  %43 = getelementptr inbounds nuw %struct.FT_Slot_InternalRec_, ptr %42, i32 0, i32 1
  %44 = load i32, ptr %43, align 8, !tbaa !40
  %45 = and i32 %44, -2
  store i32 %45, ptr %43, align 8, !tbaa !40
  br label %55

46:                                               ; preds = %17
  %47 = load ptr, ptr %5, align 8, !tbaa !10
  %48 = getelementptr inbounds nuw %struct.FT_BitmapGlyphRec_, ptr %47, i32 0, i32 3
  call void @FT_Bitmap_Init(ptr noundef %48)
  %49 = load ptr, ptr %7, align 8, !tbaa !20
  %50 = load ptr, ptr %4, align 8, !tbaa !8
  %51 = getelementptr inbounds nuw %struct.FT_GlyphSlotRec_, ptr %50, i32 0, i32 10
  %52 = load ptr, ptr %5, align 8, !tbaa !10
  %53 = getelementptr inbounds nuw %struct.FT_BitmapGlyphRec_, ptr %52, i32 0, i32 3
  %54 = call i32 @FT_Bitmap_Copy(ptr noundef %49, ptr noundef %51, ptr noundef %53)
  store i32 %54, ptr %6, align 4, !tbaa !12
  br label %55

55:                                               ; preds = %46, %35
  br label %56

56:                                               ; preds = %55, %16
  %57 = load i32, ptr %6, align 4, !tbaa !12
  call void @llvm.lifetime.end.p0(i64 8, ptr %7) #6
  call void @llvm.lifetime.end.p0(i64 4, ptr %6) #6
  call void @llvm.lifetime.end.p0(i64 8, ptr %5) #6
  ret i32 %57
}