; Function Attrs: nounwind uwtable
define internal i32 @ft_bitmap_glyph_init(ptr noundef %0, ptr noundef %1) #0 {
  %3 = load ptr, ptr %0, align 8, !tbaa !3
  %4 = getelementptr inbounds nuw i8, ptr %1, i64 144
  %5 = load i32, ptr %4, align 8, !tbaa !13
  %.not = icmp eq i32 %5, 1651078259
  br i1 %.not, label %6, label %28

6:                                                ; preds = %2
  %7 = getelementptr inbounds nuw i8, ptr %1, i64 192
  %8 = load i32, ptr %7, align 8, !tbaa !27
  %9 = getelementptr inbounds nuw i8, ptr %0, i64 40
  store i32 %8, ptr %9, align 8, !tbaa !28
  %10 = getelementptr inbounds nuw i8, ptr %1, i64 196
  %11 = load i32, ptr %10, align 4, !tbaa !30
  %12 = getelementptr inbounds nuw i8, ptr %0, i64 44
  store i32 %11, ptr %12, align 4, !tbaa !31
  %13 = getelementptr inbounds nuw i8, ptr %1, i64 296
  %14 = load ptr, ptr %13, align 8, !tbaa !32
  %15 = getelementptr inbounds nuw i8, ptr %14, i64 8
  %16 = load i32, ptr %15, align 8, !tbaa !33
  %17 = and i32 %16, 1
  %.not15 = icmp eq i32 %17, 0
  %18 = getelementptr inbounds nuw i8, ptr %0, i64 48
  br i1 %.not15, label %25, label %19

19:                                               ; preds = %6
  %20 = getelementptr inbounds nuw i8, ptr %1, i64 152
  tail call void @llvm.memcpy.p0.p0.i64(ptr noundef nonnull align 8 dereferenceable(40) %18, ptr noundef nonnull align 8 dereferenceable(40) %20, i64 40, i1 false), !tbaa.struct !37
  %21 = load ptr, ptr %13, align 8, !tbaa !32
  %22 = getelementptr inbounds nuw i8, ptr %21, i64 8
  %23 = load i32, ptr %22, align 8, !tbaa !33
  %24 = and i32 %23, -2
  store i32 %24, ptr %22, align 8, !tbaa !33
  br label %28

25:                                               ; preds = %6
  tail call void @FT_Bitmap_Init(ptr noundef nonnull %18) #6
  %26 = getelementptr inbounds nuw i8, ptr %1, i64 152
  %27 = tail call i32 @FT_Bitmap_Copy(ptr noundef %3, ptr noundef nonnull %26, ptr noundef nonnull %18) #6
  br label %28

28:                                               ; preds = %2, %19, %25
  %.0 = phi i32 [ 0, %19 ], [ %27, %25 ], [ 18, %2 ]
  ret i32 %.0
}